target datalayout = "e-m:e-p270:32:32-p271:32:32-p272:64:64-i64:64-i128:128-f80:128-n8:16:32:64-S128"
target triple = "x86_64-pc-linux-gnu"

; Function Attrs: nounwind uwtable
define dso_local i32 @find_padding_length(ptr noundef %0, i32 noundef %1) #0 {
  %3 = alloca ptr, align 8
  %4 = alloca i32, align 4
  %5 = alloca i32, align 4
  %6 = alloca i32, align 4
  %7 = alloca ptr, align 8
  %8 = alloca i32, align 4
  store ptr %0, ptr %3, align 8
  store i32 %1, ptr %4, align 4
  store i32 0, ptr %5, align 4
  store i32 0, ptr %6, align 4
  br label %9

9:                                                ; preds = %28, %2
  %10 = load i32, ptr %6, align 4
  %11 = load i32, ptr %4, align 4
  %12 = icmp slt i32 %10, %11
  br i1 %12, label %13, label %31

13:                                               ; preds = %9
  %14 = load ptr, ptr %3, align 8
  %15 = load i32, ptr %6, align 4
  %16 = sext i32 %15 to i64
  %17 = getelementptr inbounds ptr, ptr %14, i64 %16
  %18 = load ptr, ptr %17, align 8
  store ptr %18, ptr %7, align 8
  %19 = load ptr, ptr %7, align 8
  %20 = call i64 @strlen(ptr noundef %19) #10
  %21 = trunc i64 %20 to i32
  store i32 %21, ptr %8, align 4
  %22 = load i32, ptr %5, align 4
  %23 = load i32, ptr %8, align 4
  %24 = icmp slt i32 %22, %23
  br i1 %24, label %25, label %27

25:                                               ; preds = %13
  %26 = load i32, ptr %8, align 4
  store i32 %26, ptr %5, align 4
  br label %27

27:                                               ; preds = %25, %13
  br label %28

28:                                               ; preds = %27
  %29 = load i32, ptr %6, align 4
  %30 = add nsw i32 %29, 1
  store i32 %30, ptr %6, align 4
  br label %9, !llvm.loop !35

31:                                               ; preds = %9
  %32 = load i32, ptr %5, align 4
  %33 = add nsw i32 %32, 2
  store i32 %33, ptr %5, align 4
  %34 = load i32, ptr %5, align 4
  ret i32 %34
}