; Function Attrs: nofree nounwind memory(read, inaccessiblemem: none) uwtable
define dso_local i32 @find_padding_length(ptr nocapture noundef readonly %0, i32 noundef %1) local_unnamed_addr #15 {
  %3 = icmp sgt i32 %1, 0
  br i1 %3, label %.lr.ph.preheader, label %._crit_edge

.lr.ph.preheader:                                 ; preds = %2
  %wide.trip.count = zext nneg i32 %1 to i64
  br label %.lr.ph

.lr.ph:                                           ; preds = %.lr.ph.preheader, %.lr.ph
  %indvars.iv = phi i64 [ 0, %.lr.ph.preheader ], [ %indvars.iv.next, %.lr.ph ]
  %.013 = phi i32 [ 0, %.lr.ph.preheader ], [ %spec.select, %.lr.ph ]
  %4 = getelementptr inbounds ptr, ptr %0, i64 %indvars.iv
  %5 = load ptr, ptr %4, align 8
  %6 = tail call i64 @strlen(ptr noundef nonnull dereferenceable(1) %5) #22
  %7 = trunc i64 %6 to i32
  %spec.select = tail call i32 @llvm.smax.i32(i32 %.013, i32 %7)
  %indvars.iv.next = add nuw nsw i64 %indvars.iv, 1
  %exitcond.not = icmp eq i64 %indvars.iv.next, %wide.trip.count
  br i1 %exitcond.not, label %._crit_edge.loopexit, label %.lr.ph, !llvm.loop !35

._crit_edge.loopexit:                             ; preds = %.lr.ph
  %8 = add nuw nsw i32 %spec.select, 2
  br label %._crit_edge

._crit_edge:                                      ; preds = %._crit_edge.loopexit, %2
  %.0.lcssa = phi i32 [ 2, %2 ], [ %8, %._crit_edge.loopexit ]
  ret i32 %.0.lcssa
}